(dp1
S'playedTime'
p2
S'TIMESTAMP'
p3
sS'user_id'
p4
S'REFERENCES auth_user(id) ON DELETE CASCADE'
p5
sS'id'
p6
S'INTEGER PRIMARY KEY AUTOINCREMENT'
p7
sS'track_id'
p8
S'REFERENCES track(id) ON DELETE CASCADE'
p9
s.