(dp1
S'madhax'
p2
S'CHAR(512)'
p3
sS'description'
p4
S'CHAR(512)'
p5
sS'positivity'
p6
S'CHAR(512)'
p7
sS'upload'
p8
S'CHAR(512)'
p9
sS'suspense'
p10
S'CHAR(512)'
p11
sS'mp3'
p12
S'CHAR(512)'
p13
sS'artist_id'
p14
S'REFERENCES artist(id) ON DELETE CASCADE'
p15
sS'speed'
p16
S'CHAR(512)'
p17
sS'id'
p18
S'INTEGER PRIMARY KEY AUTOINCREMENT'
p19
sS'aggression'
p20
S'CHAR(512)'
p21
sS'name'
p22
S'CHAR(512)'
p23
s.