(dp1
S'image'
p2
S'CHAR(512)'
p3
sS'description'
p4
S'CHAR(512)'
p5
sS'user_id'
p6
S'REFERENCES auth_user(id) ON DELETE CASCADE'
p7
sS'id'
p8
S'INTEGER PRIMARY KEY AUTOINCREMENT'
p9
sS'upload'
p10
S'CHAR(512)'
p11
s.