(dp1
S'output'
p2
S''
sS'layer'
p3
S'/home/oatman/web2py/applications/gmr/models/menu.py'
p4
sS'code'
p5
S"# coding: utf8\n\n#########################################################################\n## Customize your APP title, subtitle and menus here\n#########################################################################\n\nresponse.title = request.application\nresponse.subtitle = T('customize me!')\n\n##########################################\n## this is the authentication menu\n## remove if not necessary\n##########################################\n\nif 'auth' in globals():\n    if not auth.is_logged_in():\n       response.menu_auth = [\n           [T('Login'), False, auth.settings.login_url,\n            [\n                   [T('Register'), False,\n                    URL(request.application,'default','user/register')],\n                   [T('Lost Password'), False,\n                    URL(request.application,'default','user/retrieve_password')]]\n            ],\n           ]\n    else:\n        response.menu_auth = [\n            ['User: '+auth.user.first_name,False,None,\n             [\n                    [T('Logout'), False, \n                     URL(request.application,'default','user/logout')],\n                    [T('Edit Profile'), False, \n                     URL(request.application,'default','user/profile')],\n                    [T('Change Password'), False,\n                     URL(request.application,'default','user/change_password')]]\n             ],\n            ]\n\n##########################################\n## this is the main application menu\n## add/remove items as required\n##########################################\n\nresponse.menu = [\n    [T('Index'), False, \n     URL(request.application,'default','index'), []\n     URL(request.application,'default','index'), []\n    ]\n]\n\n\n##########################################\n## this is here to provide shortcuts\n## during development. remove in production \n##########################################\n\nresponse.menu_edit=[\n  [T('Edit'), False, URL('admin', 'default', 'design/%s' % request.application),\n   [\n            [T('Controller'), False, \n             URL('admin', 'default', 'edit/%s/controllers/default.py' \\\n                     % request.application)],\n            [T('View'), False, \n             URL('admin', 'default', 'edit/%s/views/%s' \\\n                     % (request.application,response.view))],\n            [T('Layout'), False, \n             URL('admin', 'default', 'edit/%s/views/layout.html' \\\n                     % request.application)],\n            [T('Stylesheet'), False, \n             URL('admin', 'default', 'edit/%s/static/base.css' \\\n                     % request.application)],\n            [T('DB Model'), False, \n             URL('admin', 'default', 'edit/%s/models/db.py' \\\n                     % request.application)],\n            [T('Menu Model'), False, \n             URL('admin', 'default', 'edit/%s/models/menu.py' \\\n                     % request.application)],\n            [T('Database'), False, \n             URL(request.application, 'appadmin', 'index')],\n            ]\n   ],\n  ]\n"
p6
sS'traceback'
p7
S'Traceback (most recent call last):\n  File "/home/oatman/web2py/gluon/restricted.py", line 182, in restricted\n    ccode = compile(code.replace(\'\\r\\n\', \'\\n\'), layer, \'exec\')\n  File "/home/oatman/web2py/applications/gmr/models/menu.py", line 47\n    URL(request.application,\'default\',\'index\'), []\n      ^\nSyntaxError: invalid syntax\n'
p8
s.