(dp1
S'output'
p2
S''
sS'layer'
p3
S'/home/oatman/web2py/applications/gmr/controllers/default.py'
p4
sS'code'
p5
S'# coding: utf8\n\n#########################################################################\n## This is a samples controller\n## - index is the default action of any application\n## - user is required for authentication and authorization\n## - download is for downloading files uploaded in the db (does streaming)\n## - call exposes all registered services (none by default)\n#########################################################################  \n\ndef index():\n    "generates rss feed form the wiki pages"\n    import gluon.contrib.markdown as md\n    tracks = db().select(db.track.ALL)\n    return dict(\n        title = \'mywiki rss feed\',\n        link = \'http://127.0.0.1:8000/mywiki/default/index\',\n        description = \'mywiki news\',\n        created_on = request.now,\n        items = [\n            dict(title = track.title,\n            description = track.description,\n            ) for track in tracks]\n        )\n\ndef user():\n    """\n    exposes:\n    http://..../[app]/default/user/login \n    http://..../[app]/default/user/logout\n    http://..../[app]/default/user/register\n    http://..../[app]/default/user/profile\n    http://..../[app]/default/user/retrieve_password\n    http://..../[app]/default/user/change_password\n    use @auth.requires_login()\n        @auth.requires_membership(\'group name\')\n        @auth.requires_permission(\'read\',\'table name\',record_id)\n    to decorate functions that need access control\n    """\n    return dict(form=auth())\n\n\ndef download():\n    """\n    allows downloading of uploaded files\n    http://..../[app]/default/download/[filename]\n    """\n    return response.download(request,db)\n\n\ndef call():\n    """\n    exposes services. for example:\n    http://..../[app]/default/call/jsonrpc\n    decorate with @services.jsonrpc the functions to expose\n    supports xml, json, xmlrpc, jsonrpc, amfrpc, rss, csv\n    """\n    session.forget()\n    return service()\n\nresponse._vars=response._caller(index)\n'
p6
sS'traceback'
p7
S'Traceback (most recent call last):\n  File "/home/oatman/web2py/gluon/restricted.py", line 184, in restricted\n    exec ccode in environment\n  File "/home/oatman/web2py/applications/gmr/controllers/default.py", line 61, in <module>\n  File "/home/oatman/web2py/gluon/globals.py", line 103, in <lambda>\n    self._caller = lambda f: f()\n  File "/home/oatman/web2py/applications/gmr/controllers/default.py", line 23, in index\n    ) for track in tracks]\n  File "/home/oatman/web2py/gluon/sql.py", line 621, in __getattr__\n    return dict.__getitem__(self,key)\nKeyError: \'title\'\n'
p8
s.